; Function Attrs: nounwind uwtable
define internal ptr @ml_dsa_dup_key(ptr noundef %0, i32 noundef %1) #0 {
  %3 = tail call i32 @ossl_prov_is_running() #6
  %.not = icmp eq i32 %3, 0
  br i1 %.not, label %6, label %4

4:                                                ; preds = %2
  %5 = tail call ptr @ossl_ml_dsa_key_dup(ptr noundef %0, i32 noundef %1) #6
  br label %6

6:                                                ; preds = %2, %4
  %.0 = phi ptr [ %5, %4 ], [ null, %2 ]
  ret ptr %.0
}